; ModuleID = 'bench/openssl/original/sleep.ll'
source_filename = "bench/openssl/original/sleep.ll"
target datalayout = "e-m:e-p270:32:32-p271:32:32-p272:64:64-i64:64-i128:128-f80:128-n8:16:32:64-S128"
target triple = "x86_64-pc-linux-gnu"

%struct.timespec = type { i64, i64 }

; Function Attrs: nounwind uwtable
define void @OSSL_sleep(i64 noundef %0) local_unnamed_addr #0 {
  %2 = alloca %struct.timespec, align 8
  call void @llvm.lifetime.start.p0(i64 16, ptr nonnull %2) #3
  %3 = udiv i64 %0, 1000
  store i64 %3, ptr %2, align 8, !tbaa !3
  %4 = urem i64 %0, 1000
  %5 = mul nuw nsw i64 %4, 1000000
  %6 = getelementptr inbounds nuw i8, ptr %2, i64 8
  store i64 %5, ptr %6, align 8, !tbaa !8
  %7 = call i32 @nanosleep(ptr noundef nonnull %2, ptr noundef null) #3
  call void @llvm.lifetime.end.p0(i64 16, ptr nonnull %2) #3
  ret void
}

; Function Attrs: mustprogress nocallback nofree nosync nounwind willreturn memory(argmem: readwrite)
declare void @llvm.lifetime.start.p0(i64 immarg, ptr captures(none)) #1

declare i32 @nanosleep(ptr noundef, ptr noundef) local_unnamed_addr #2

; Function Attrs: mustprogress nocallback nofree nosync nounwind willreturn memory(argmem: readwrite)
declare void @llvm.lifetime.end.p0(i64 immarg, ptr captures(none)) #1


!llvm.module.flags = !{!0, !1, !2}

!0 = !{i32 1, !"wchar_size", i32 4}
!1 = !{i32 8, !"PIC Level", i32 2}
!2 = !{i32 7, !"uwtable", i32 2}
!3 = !{!4, !5, i64 0}
!4 = !{!"timespec", !5, i64 0, !5, i64 8}
!5 = !{!"long", !6, i64 0}
!6 = !{!"omnipotent char", !7, i64 0}
!7 = !{!"Simple C/C++ TBAA"}
!8 = !{!4, !5, i64 8}
